target datalayout = "e-m:e-p270:32:32-p271:32:32-p272:64:64-i64:64-i128:128-f80:128-n8:16:32:64-S128"
target triple = "x86_64-pc-linux-gnu"

@DispatchOptionNames = internal constant [5 x ptr] [ptr @.str.18, ptr @.str.19, ptr @.str.20, ptr @.str.21, ptr @.str.22], align 16

; Function Attrs: nounwind uwtable
define dso_local i32 @parse_dispatch_option(ptr noundef %0) #0 {
  %2 = alloca i32, align 4
  %3 = alloca ptr, align 8
  %4 = alloca i32, align 4
  %5 = alloca i32, align 4
  store ptr %0, ptr %3, align 8
  call void @llvm.lifetime.start.p0(i64 4, ptr %4) #8
  store i32 0, ptr %4, align 4
  br label %6

6:                                                ; preds = %26, %1
  %7 = load i32, ptr %4, align 4
  %8 = sext i32 %7 to i64
  %9 = icmp ult i64 %8, 5
  br i1 %9, label %11, label %10

10:                                               ; preds = %6
  store i32 2, ptr %5, align 4
  br label %29

11:                                               ; preds = %6
  %12 = load i32, ptr %4, align 4
  %13 = icmp eq i32 %12, 2
  br i1 %13, label %14, label %15

14:                                               ; preds = %11
  br label %26

15:                                               ; preds = %11
  %16 = load i32, ptr %4, align 4
  %17 = sext i32 %16 to i64
  %18 = getelementptr inbounds [5 x ptr], ptr @DispatchOptionNames, i64 0, i64 %17
  %19 = load ptr, ptr %18, align 8
  %20 = load ptr, ptr %3, align 8
  %21 = call i32 @strcmp(ptr noundef %19, ptr noundef %20) #9
  %22 = icmp eq i32 %21, 0
  br i1 %22, label %23, label %25

23:                                               ; preds = %15
  %24 = load i32, ptr %4, align 4
  store i32 %24, ptr %2, align 4
  store i32 1, ptr %5, align 4
  br label %29

25:                                               ; preds = %15
  br label %26

26:                                               ; preds = %25, %14
  %27 = load i32, ptr %4, align 4
  %28 = add i32 %27, 1
  store i32 %28, ptr %4, align 4
  br label %6, !llvm.loop !6

29:                                               ; preds = %23, %10
  call void @llvm.lifetime.end.p0(i64 4, ptr %4) #8
  %30 = load i32, ptr %5, align 4
  switch i32 %30, label %34 [
    i32 2, label %31
    i32 1, label %32
  ]

31:                                               ; preds = %29
  store i32 5, ptr %2, align 4
  br label %32

32:                                               ; preds = %31, %29
  %33 = load i32, ptr %2, align 4
  ret i32 %33

34:                                               ; preds = %29
  unreachable
}