; Function Attrs: nofree nounwind memory(read, inaccessiblemem: none) uwtable
define dso_local i32 @parse_dispatch_option(ptr noundef readonly captures(none) %0) local_unnamed_addr #7 {
  br label %2

2:                                                ; preds = %1, %9
  %indvars.iv = phi i64 [ 0, %1 ], [ %indvars.iv.next, %9 ]
  %3 = icmp eq i64 %indvars.iv, 2
  br i1 %3, label %9, label %4

4:                                                ; preds = %2
  %5 = getelementptr inbounds nuw [5 x ptr], ptr @DispatchOptionNames, i64 0, i64 %indvars.iv
  %6 = load ptr, ptr %5, align 8
  %7 = tail call i32 @strcmp(ptr noundef nonnull dereferenceable(1) %6, ptr noundef nonnull dereferenceable(1) %0) #18
  %8 = icmp eq i32 %7, 0
  br i1 %8, label %.split.loop.exit, label %9

9:                                                ; preds = %4, %2
  %indvars.iv.next = add nuw nsw i64 %indvars.iv, 1
  %exitcond = icmp eq i64 %indvars.iv.next, 5
  br i1 %exitcond, label %.split.loop.exit12, label %2, !llvm.loop !4

.split.loop.exit:                                 ; preds = %4
  %10 = trunc nuw nsw i64 %indvars.iv to i32
  br label %.split.loop.exit12

.split.loop.exit12:                               ; preds = %9, %.split.loop.exit
  %spec.select = phi i32 [ %10, %.split.loop.exit ], [ 5, %9 ]
  ret i32 %spec.select
}